(lp0
(lp1
I1
aI2
aI3
aa(lp2
I4
aI5
aa(lp3
I6
aI7
aa(lp4
I8
aI9
aI9
aa(lp5
I10
aI11
aI11
aI11
aa(lp6
I12
aI13
aa(lp7
I14
aI14
aa(lp8
I15
aI15
aa(lp9
I16
aI17
aI18
aI19
aa(lp10
I20
aI20
aI21
aI21
aI21
aI20
aI21
aI21
aa(lp11
I22
aI22
aa(lp12
I23
aI23
aa(lp13
I1
aI24
aI3
aI2
aa(lp14
I25
aI26
aI27
aI28
aa(lp15
I29
aI30
aa(lp16
I31
aI32
aI31
aI31
aI31
aI31
aa(lp17
I33
aI33
aI33
aa(lp18
I12
aI13
aI12
aI13
aI34
aI34
aI12
aI13
aI12
aa(lp19
I35
aI35
aa(lp20
I36
aI36
aI36
aI36
aI36
aI36
aa(lp21
I37
aI37
aI37
aI38
aa(lp22
I39
aI40
aa(lp23
I41
aI41
aa(lp24
I42
aI43
aI44
aI44
aa(lp25
I45
aI46
aI45
aa(lp26
I34
aI34
aI34
aa(lp27
I47
aI47
aa(lp28
I23
aI23
aa(lp29
I43
aI48
aa(lp30
I10
aI10
aI10
aa(lp31
I43
aI49
aa(lp32
I13
aI12
aa(lp33
I50
aI51
aI51
aI51
aa(lp34
I52
aI53
aI44
aa(lp35
I54
aI54
aa(lp36
I3
aI24
aa(lp37
I55
aI55
aa(lp38
I56
aI57
aI57
aa(lp39
I58
aI59
aI58
aa(lp40
I5
aI60
aa(lp41
I38
aI37
aa(lp42
I61
aI61
aI61
aI61
aI61
aI61
aI61
aa(lp43
I62
aI62
aI63
aI62
aI62
aa(lp44
I5
aI60
aa(lp45
I64
aI64
aa(lp46
I45
aI65
aI66
aI7
aI6
aI67
aI67
aa(lp47
I68
aI55
aI68
aI68
aI68
aa(lp48
I14
aI69
aI70
aI14
aI14
aI69
aI14
aI70
aI69
aa(lp49
I71
aI71
aa(lp50
I72
aI73
aa(lp51
I74
aI74
aa(lp52
I75
aI76
aI75
aI77
aI75
aI75
aI75
aa(lp53
I46
aI78
aI46
aa(lp54
I79
aI79
aI79
aa(lp55
I80
aI81
aa(lp56
I82
aI82
aa(lp57
I83
aI83
aa(lp58
I84
aI84
aa(lp59
I85
aI85
aI86
aI85
aI85
aa(lp60
I87
aI87
aa(lp61
I88
aI73
aa(lp62
I89
aI89
aa(lp63
I81
aI81
aI81
aa(lp64
I90
aI90
aI90
aa(lp65
I25
aI25
aa(lp66
I91
aI92
aa(lp67
I92
aI91
aa(lp68
I93
aI76
aI94
aI76
aI93
aI95
aI93
aa(lp69
I67
aI96
aa(lp70
I46
aI97
aI98
aI97
aa(lp71
I73
aI73
aI73
aa(lp72
I99
aI100
aI100
aI99
aI26
aa(lp73
I101
aI101
aa(lp74
I72
aI72
aa(lp75
I102
aI102
aa(lp76
I103
aI104
aa(lp77
I105
aI106
aI105
aI107
aI107
aI105
aI108
aa(lp78
I46
aI46
aa(lp79
I109
aI53
aa(lp80
I110
aI110
aa(lp81
I111
aI112
aa(lp82
I113
aI113
aI113
aa(lp83
I114
aI45
aa(lp84
I115
aI115
aa(lp85
I116
aI116
aI116
aI116
aI116
aa(lp86
I117
aI117
aI117
aa(lp87
I100
aI118
aI99
aa(lp88
I16
aI19
aa(lp89
I56
aI56
aa(lp90
I28
aI28
aI28
aI119
aI120
aa(lp91
I68
aI55
aI68
aa(lp92
I56
aI121
aI57
aa(lp93
I56
aI57
aa(lp94
I122
aI123
aI123
aa(lp95
I124
aI124
aI124
aa(lp96
I125
aI126
aa(lp97
I127
aI127
aa(lp98
I128
aI128
aI128
aI128
aI128
aI74
aa(lp99
I5
aI60
aI60
aI5
aa(lp100
I129
aI130
aI130
aI130
aa(lp101
I131
aI94
aI132
aI133
aI133
aa(lp102
I133
aI94
aI94
aI132
aI134
aI134
aI132
aa(lp103
I135
aI136
aI135
aI137
aa(lp104
I1
aI1
aI3
aI24
aa(lp105
I138
aI138
aI138
aa(lp106
I139
aI19
aI19
aI139
aa(lp107
I140
aI140
aa(lp108
I74
aI74
aa(lp109
I141
aI141
aa(lp110
I78
aI142
aa(lp111
I70
aI69
aa(lp112
I143
aI143
aI143
aI143
aI143
aa(lp113
I144
aI145
aI145
aI144
aI144
aI144
aI145
aI145
aI144
aI145
aI144
aI145
aI144
aI145
aa(lp114
I86
aI146
aa(lp115
I44
aI39
aI44
aa(lp116
I78
aI98
aI142
aa(lp117
I85
aI146
aa(lp118
I39
aI39
aI39
aa(lp119
I147
aI147
aI147
aa(lp120
I123
aI123
aa(lp121
I148
aI148
aI148
aI148
aI148
aa(lp122
I149
aI86
aI86
aa(lp123
I97
aI8
aI7
aI7
aa(lp124
I111
aI150
aa(lp125
I39
aI39
aa(lp126
I151
aI11
aI11
aI99
aI100
aI118
aI100
aa(lp127
I152
aI153
aI152
aI153
aI152
aI152
aI152
aI153
aI152
aI154
aI154
aI152
aa(lp128
I120
aI119
aI120
aa(lp129
I155
aI156
aa(lp130
I157
aI157
aa(lp131
I137
aI136
aI136
aa(lp132
I158
aI158
aa(lp133
I159
aI159
aa(lp134
I15
aI15
aa(lp135
I53
aI53
aI53
aa(lp136
I160
aI161
aI161
aI161
aI50
aI161
aI160
aa(lp137
I53
aI53
aI53
aa(lp138
I50
aI162
aa(lp139
I163
aI163
aa(lp140
I164
aI164
aI164
aI122
aI54
aI77
aI122
aI54
aa(lp141
I87
aI30
aa(lp142
I113
aI59
aI113
aI113
aa(lp143
I165
aI165
aa(lp144
I51
aI166
aI50
aI162
aI50
aa(lp145
I155
aI156
aI155
aa(lp146
I167
aI168
aI169
aa(lp147
I170
aI170
aa(lp148
I171
aI171
aI171
aI146
aI171
aa(lp149
I156
aI156
aI155
aI155
aa(lp150
I168
aI172
aI173
aI174
aI174
aa(lp151
I175
aI175
aI175
aI175
aI175
aa(lp152
I176
aI176
aI176
aa(lp153
I177
aI177
aa(lp154
I178
aI178
aI178
aI178
aa(lp155
I66
aI179
aa(lp156
I180
aI180
aI180
aa(lp157
I181
aI181
aI181
aa(lp158
I65
aI65
aa(lp159
I182
aI182
aa(lp160
I183
aI183
aI183
aa(lp161
I15
aI15
aI15
aa(lp162
I184
aI184
aI184
aI184
aI184
aI184
aa(lp163
I185
aI185
aI185
aa(lp164
I19
aI16
aI139
aa(lp165
I132
aI95
aa(lp166
I25
aI186
aI26
aa(lp167
I37
aI37
aa(lp168
I87
aI29
aI87
aI29
aa(lp169
I187
aI187
aa(lp170
I166
aI162
aI68
aa(lp171
I18
aI17
aI188
aI188
aI18
aa(lp172
I188
aI49
aI48
aa(lp173
I189
aI189
aa(lp174
I5
aI4
aI5
aI4
aI5
aa(lp175
I190
aI190
aa(lp176
I191
aI191
aI191
aI13
aa(lp177
I92
aI91
aI91
aa(lp178
I99
aI26
aI99
aa(lp179
I192
aI192
aa(lp180
I27
aI27
aa(lp181
I193
aI193
aI193
aI193
aI119
aa(lp182
I194
aI194
aI194
aa(lp183
I180
aI195
aI59
aa(lp184
I30
aI84
aa(lp185
I68
aI68
aa(lp186
I180
aI113
aa(lp187
I196
aI196
aI196
aI196
aI196
aa(lp188
I28
aI119
aI120
aI28
aa(lp189
I86
aI197
aa(lp190
I110
aI110
aI110
aa(lp191
I198
aI198
aI198
aa(lp192
I199
aI173
aI173
aI200
aI199
aa(lp193
I19
aI139
aa(lp194
I87
aI29
aI49
aa(lp195
I185
aI185
aI185
aI185
aI185
aI201
aI201
aI185
aI185
aa(lp196
I185
aI202
aI185
aI185
aI24
aa(lp197
I157
aI114
aI78
aa(lp198
I203
aI203
aI204
aI204
aa(lp199
I45
aI98
aI97
aI97
aI45
aI45
aa(lp200
I205
aI205
aI205
aI205
aI205
aI205
aI205
aI205
aI205
aa(lp201
I206
aI206
aa(lp202
I103
aI103
aa(lp203
I48
aI48
aa(lp204
I207
aI207
aI207
aI207
aI207
aI207
aI207
aa(lp205
I208
aI208
aI208
aI208
aI208
aI208
aI208
aI208
aI208
aI208
aI208
aI208
aa(lp206
I84
aI84
aa(lp207
I209
aI209
aI209
aI209
aI209
aa(lp208
I181
aI190
aI181
aa(lp209
I136
aI137
aI136
aI137
aI137
aa(lp210
I206
aI206
aa(lp211
I28
aI25
aa(lp212
I203
aI203
aI203
aI203
aa(lp213
I210
aI210
aa(lp214
I183
aI183
aa(lp215
I19
aI18
aI17
aa(lp216
I211
aI211
aI211
aI212
aa(lp217
I213
aI213
aI213
aa(lp218
I136
aI137
aa(lp219
I70
aI69
aI70
aI70
aa(lp220
I131
aI77
aa(lp221
I214
aI214
aI53
aI109
aI188
aI48
aa(lp222
I147
aI147
aI147
aa(lp223
I215
aI215
aa(lp224
I139
aI139
aI139
aa(lp225
I216
aI216
aa(lp226
I103
aI104
aa(lp227
I30
aI214
aa(lp228
I217
aI217
aa(lp229
I218
aI116
aa(lp230
I55
aI162
aI162
aa(lp231
I57
aI56
aI57
aI4
aI5
aa(lp232
I219
aI219
aI219
aI219
aa(lp233
I146
aI146
aa(lp234
I217
aI173
aI217
aI174
aI174
aI217
aI217
aI174
aa(lp235
I220
aI220
aI220
aa(lp236
I212
aI221
aI212
aa(lp237
I222
aI223
aI224
aI225
aI226
aI226
aa(lp238
I227
aI227
aI227
aI228
aI228
aI228
aI228
aI227
aI227
aa(lp239
I22
aI229
aa(lp240
I38
aI38
aa(lp241
I71
aI71
aa(lp242
I67
aI157
aI12
aI142
aI46
aI157
aI114
aa(lp243
I104
aI85
aI146
aI86
aI212
aa(lp244
I182
aI182
aa(lp245
I26
aI120
aI28
aI120
aI25
aa(lp246
I221
aI82
aa(lp247
I56
aI230
aa(lp248
I231
aI232
aa(lp249
I15
aI15
aI15
aa(lp250
I174
aI88
aI88
aa(lp251
I8
aI8
aa(lp252
I59
aI113
aI180
aI113
aa(lp253
I34
aI34
aI34
aI34
aI34
aa(lp254
I99
aI118
aI100
aI118
aI233
aa(lp255
I234
aI234
aI234
aI234
aI234
aa(lp256
I55
aI68
aI68
aa(lp257
I170
aI170
aI170
aa(lp258
I107
aI106
aI106
aI106
aI106
aa(lp259
I17
aI19
aa(lp260
I235
aI236
aI235
aI237
aI235
aI238
aa(lp261
I189
aI189
aa(lp262
I24
aI24
aa(lp263
I109
aI109
aa(lp264
I78
aI46
aI78
aI98
aI45
aI98
aI78
aI200
aa(lp265
I77
aI131
aI132
aI134
aa(lp266
I239
aI239
aI239
aI239
aI239
aa(lp267
I41
aI41
aa(lp268
I240
aI241
aI240
aa(lp269
I242
aI242
aI242
aa(lp270
I52
aI52
aa(lp271
I166
aI162
aI50
aI162
aI50
aa(lp272
I215
aI215
aa(lp273
I201
aI202
aI202
aI201
aI202
aI201
aI202
aI202
aI201
aa(lp274
I200
aI78
aI243
aI65
aI176
aI167
aI200
aI168
aI199
aa(lp275
I26
aI118
aI28
aa(lp276
I49
aI43
aa(lp277
I3
aI118
aa(lp278
I122
aI131
aa(lp279
I46
aI98
aI46
aa(lp280
I244
aI245
aa(lp281
I24
aI246
aI112
aa(lp282
I247
aI248
aa(lp283
I18
aI19
aa(lp284
I149
aI249
aI250
aI250
aI149
aa(lp285
I118
aI99
aI119
aa(lp286
I49
aI191
aa(lp287
I40
aI30
aa(lp288
I121
aI5
aI248
aI121
aa(lp289
I233
aI233
aI233
aI233
aa(lp290
I9
aI66
aa(lp291
I142
aI46
aI142
aI46
aI142
aI142
aa(lp292
I241
aI129
aI129
aI241
aa(lp293
I251
aI252
aI252
aa(lp294
I253
aI138
aa(lp295
I244
aI245
aa(lp296
I254
aI254
aa(lp297
I114
aI98
aI98
aa(lp298
I255
aI255
aI255
aa(lp299
I215
aI215
aI215
aa(lp300
I35
aI24
aa(lp301
I228
aI82
aI182
aa(lp302
I54
aI75
aI95
aa(lp303
I256
aI71
aa(lp304
I221
aI82
aI221
aa(lp305
I217
aI73
aI73
aI215
aI168
aa(lp306
I257
aI257
aa(lp307
I5
aI60
aI121
aa(lp308
I251
aI252
aI251
aI252
aI251
aI251
aI252
aI251
aI252
aI252
aI251
aI252
aa(lp309
I55
aI55
aa(lp310
I246
aI246
aa(lp311
I181
aI190
aa(lp312
I30
aI87
aI87
aI87
aI87
aI63
aI63
aI25
aa(lp313
I258
aI258
aI258
aa(lp314
I9
aI66
aI259
aa(lp315
I152
aI153
aI152
aI153
aI153
aa(lp316
I19
aI16
aI151
aa(lp317
I162
aI50
aa(lp318
I260
aI261
aI260
aI260
aI261
aI261
aI260
aI261
aI261
aI261
aa(lp319
I243
aI243
aI243
aI243
aI243
aa(lp320
I17
aI17
aI19
aa(lp321
I216
aI216
aI262
aI216
aa(lp322
I263
aI33
aI262
aa(lp323
I117
aI117
aa(lp324
I264
aI264
aI264
aI264
aI96
aa(lp325
I136
aI135
aI265
aa(lp326
I95
aI95
aa(lp327
I266
aI267
aa(lp328
I108
aI108
aI106
aI106
aI106
aI107
aI106
aI106
aa(lp329
I108
aI106
aI106
aa(lp330
I262
aI263
aI263
aa(lp331
I188
aI29
aa(lp332
I39
aI43
aa(lp333
I127
aI268
aI146
aa(lp334
I60
aI60
aI6
aI170
aa(lp335
I180
aI180
aa(lp336
I33
aI263
aa(lp337
I158
aI158
aa(lp338
I66
aI200
aI66
aI259
aI259
aI200
aI259
aa(lp339
I111
aI112
aa(lp340
I241
aI127
aI130
aI130
aa(lp341
I107
aI269
aI269
aa(lp342
I270
aI270
aI270
aI270
aI270
aI270
aI270
aa(lp343
I42
aI30
aa(lp344
I25
aI25
aI25
aI25
aI25
aI25
aa(lp345
I271
aI272
aI271
aa(lp346
I139
aI24
aa(lp347
I273
aI273
aI273
aI273
aI274
aa(lp348
I22
aI229
aI22
aa(lp349
I97
aI45
aI176
aI200
aa(lp350
I181
aI181
aa(lp351
I33
aI262
aI141
aI33
aa(lp352
I139
aI19
aI275
aI151
aa(lp353
I229
aI22
aa(lp354
I131
aI134
aI94
aI134
aa(lp355
I39
aI43
aa(lp356
I146
aI85
aI85
aa(lp357
I129
aI129
aa(lp358
I131
aI133
aa(lp359
I28
aI120
aI28
aa(lp360
I260
aI276
aa(lp361
I275
aI277
aa(lp362
I59
aI180
aI59
aI195
aI58
aI195
aI58
aI195
aI59
aI180
aI59
aa(lp363
I224
aI222
aI225
aI223
aI226
aI223
aI222
aI223
aI226
aI223
aI225
aI223
aI223
aI223
aI225
aI222
aI224
aa(lp364
I218
aI116
aa(lp365
I191
aI87
aa(lp366
I209
aI209
aa(lp367
I127
aI130
aI241
aI241
aI241
aI241
aI241
aI241
aa(lp368
I22
aI229
aa(lp369
I278
aI278
aI278
aI278
aI278
aI278
aI278
aa(lp370
I247
aI247
aI247
aa(lp371
I258
aI258
aa(lp372
I279
aI279
aI279
aa(lp373
I183
aI66
aI200
aI6
aI264
aa(lp374
I280
aI280
aI280
aI280
aI280
aI280
aa(lp375
I97
aI7
aI264
aI96
aa(lp376
I260
aI256
aI245
aI256
aa(lp377
I214
aI214
aa(lp378
I281
aI205
aI281
aI281
aI281
aI281
aa(lp379
I1
aI246
aI159
aI2
aa(lp380
I25
aI118
aa(lp381
I45
aI282
aI200
aI282
aI45
aI232
aI259
aa(lp382
I63
aI257
aa(lp383
I260
aI244
aI276
aI260
aI260
aI276
aI244
aI245
aI278
aI260
aI187
aI187
aa(lp384
I80
aI138
aa(lp385
I283
aI58
aI283
aI283
aI283
aa(lp386
I276
aI276
aa(lp387
I284
aI284
aa(lp388
I285
aI285
aa(lp389
I214
aI40
aa(lp390
I42
aI42
aa(lp391
I285
aI249
aI197
aa(lp392
I199
aI167
aa(lp393
I95
aI123
aI95
aI194
aa(lp394
I78
aI114
aI78
aa(lp395
I108
aI286
aa(lp396
I18
aI18
aa(lp397
I217
aI173
aa(lp398
I287
aI287
aI287
aa(lp399
I288
aI288
aI284
aI284
aI288
aI254
aI254
aI288
aI288
aa(lp400
I172
aI73
aI242
aI260
aI245
aI260
aI244
aI245
aI187
aa(lp401
I163
aI163
aI163
aa(lp402
I289
aI289
aa(lp403
I282
aI172
aI97
aI73
aI172
aI73
aI259
aa(lp404
I78
aI78
aa(lp405
I130
aI240
aI47
aa(lp406
I150
aI150
aa(lp407
I214
aI39
aa(lp408
I115
aI115
aa(lp409
I2
aI125
aI126
aI125
aI125
aI126
aI126
aI277
aI3
aa(lp410
I126
aI125
aa(lp411
I238
aI290
aI160
aI238
aI290
aI290
aI235
aI290
aI237
aI290
aI290
aa(lp412
I244
aI291
aI291
aI291
aa(lp413
I292
aI292
aI292
aI292
aI292
aa(lp414
I172
aI45
aI200
aI7
aI200
aI259
aI8
aa(lp415
I293
aI293
aI293
aI293
aI279
aa(lp416
I40
aI40
aa(lp417
I94
aI30
aa(lp418
I274
aI82
aI274
aa(lp419
I82
aI82
aa(lp420
I35
aI35
aa(lp421
I194
aI118
aa(lp422
I92
aI92
aI92
aa(lp423
I120
aI177
aa(lp424
I28
aI186
aI186
aa(lp425
I160
aI160
aa(lp426
I55
aI68
aI51
aI68
aa(lp427
I253
aI294
aI294
aI294
aI253
aI253
aI253
aI253
aI253
aI294
aI294
aa(lp428
I30
aI87
aI29
aI214
aI214
aa(lp429
I197
aI250
aI197
aI249
aI197
aI197
aa(lp430
I268
aI268
aI268
aa(lp431
I210
aI210
aa(lp432
I149
aI250
aI86
aa(lp433
I50
aI68
aa(lp434
I295
aI295
aa(lp435
I296
aI297
aI296
aI236
aI298
aI298
aI237
aI297
aI297
aI296
aI237
aI297
aI297
aI237
aI237
aI297
aa(lp436
I231
aI172
aa(lp437
I87
aI188
aI87
aa(lp438
I269
aI269
aI269
aa(lp439
I45
aI45
aa(lp440
I299
aI182
aa(lp441
I206
aI206
aI206
aa(lp442
I103
aI104
aa(lp443
I181
aI181
aa(lp444
I11
aI139
aI35
aa(lp445
I68
aI68
aa(lp446
I66
aI179
aI179
aI179
aI179
aI179
aI66
aI66
aa(lp447
I300
aI300
aI300
aa(lp448
I192
aI192
aa(lp449
I301
aI301
aI301
aI301
aI301
aa(lp450
I108
aI108
aI108
aa(lp451
I302
aI302
aI302
aI302
aa(lp452
I266
aI267
aI267
aI267
aI267
aI303
aI303
aI304
aI266
aI267
aI303
aa(lp453
I28
aI28
aI28
aa(lp454
I305
aI305
aI192
aI305
aI305
aI305
aI192
aI305
aI172
aa(lp455
I22
aI229
aI229
aa(lp456
I304
aI304
aa(lp457
I306
aI304
aI266
aI306
aI303
aI267
aI266
aI303
aI267
aI306
aI267
aa(lp458
I172
aI9
aa(lp459
I262
aI262
aa(lp460
I115
aI307
aa(lp461
I88
aI200
aa(lp462
I136
aI3
aI2
aI159
aI159
aI112
aI112
aI159
aa(lp463
I220
aI220
aa(lp464
I308
aI308
aI65
aI308
aa(lp465
I308
aI308
aI172
aI65
aI308
aa(lp466
I272
aI286
aI286
aI286
aI271
aI286
aa(lp467
I154
aI154
aI154
aa(lp468
I249
aI197
aa(lp469
I309
aI309
aI309
aI309
aI309
aI309
aa.