((lp0
(lp1
I1
aI2
aa(lp2
I1
aa(lp3
I4
aa(lp4
I6
aa(lp5
I8
aI9
aa(lp6
I8
aa(lp7
I10
aI11
aI11
aa(lp8
I10
aI11
aa(lp9
I10
aa(lp10
I12
aa(lp11
I14
aa(lp12
I15
aa(lp13
I16
aI17
aI18
aa(lp14
I16
aI17
aa(lp15
I16
aa(lp16
I20
aI20
aI21
aI21
aI21
aI20
aI21
aa(lp17
I20
aI20
aI21
aI21
aI21
aI20
aa(lp18
I20
aI20
aI21
aI21
aI21
aa(lp19
I20
aI20
aI21
aI21
aa(lp20
I20
aI20
aI21
aa(lp21
I20
aI20
aa(lp22
I20
aa(lp23
I22
aa(lp24
I23
aa(lp25
I1
aI24
aI3
aa(lp26
I1
aI24
aa(lp27
I1
aa(lp28
I25
aI26
aI27
aa(lp29
I25
aI26
aa(lp30
I25
aa(lp31
I29
aa(lp32
I31
aI32
aI31
aI31
aI31
aa(lp33
I31
aI32
aI31
aI31
aa(lp34
I31
aI32
aI31
aa(lp35
I31
aI32
aa(lp36
I31
aa(lp37
I33
aI33
aa(lp38
I33
aa(lp39
I12
aI13
aI12
aI13
aI34
aI34
aI12
aI13
aa(lp40
I12
aI13
aI12
aI13
aI34
aI34
aI12
aa(lp41
I12
aI13
aI12
aI13
aI34
aI34
aa(lp42
I12
aI13
aI12
aI13
aI34
aa(lp43
I12
aI13
aI12
aI13
aa(lp44
I12
aI13
aI12
aa(lp45
I12
aI13
aa(lp46
I12
aa(lp47
I35
aa(lp48
I36
aI36
aI36
aI36
aI36
aa(lp49
I36
aI36
aI36
aI36
aa(lp50
I36
aI36
aI36
aa(lp51
I36
aI36
aa(lp52
I36
aa(lp53
I37
aI37
aI37
aa(lp54
I37
aI37
aa(lp55
I37
aa(lp56
I39
aa(lp57
I41
aa(lp58
I42
aI43
aI44
aa(lp59
I42
aI43
aa(lp60
I42
aa(lp61
I45
aI46
aa(lp62
I45
aa(lp63
I34
aI34
aa(lp64
I34
aa(lp65
I47
aa(lp66
I23
aa(lp67
I43
aa(lp68
I10
aI10
aa(lp69
I10
aa(lp70
I43
aa(lp71
I13
aa(lp72
I50
aI51
aI51
aa(lp73
I50
aI51
aa(lp74
I50
aa(lp75
I52
aI53
aa(lp76
I52
aa(lp77
I54
aa(lp78
I3
aa(lp79
I55
aa(lp80
I56
aI57
aa(lp81
I56
aa(lp82
I58
aI59
aa(lp83
I58
aa(lp84
I5
aa(lp85
I38
aa(lp86
I61
aI61
aI61
aI61
aI61
aI61
aa(lp87
I61
aI61
aI61
aI61
aI61
aa(lp88
I61
aI61
aI61
aI61
aa(lp89
I61
aI61
aI61
aa(lp90
I61
aI61
aa(lp91
I61
aa(lp92
I62
aI62
aI63
aI62
aa(lp93
I62
aI62
aI63
aa(lp94
I62
aI62
aa(lp95
I62
aa(lp96
I5
aa(lp97
I64
aa(lp98
I45
aI65
aI66
aI7
aI6
aI67
aa(lp99
I45
aI65
aI66
aI7
aI6
aa(lp100
I45
aI65
aI66
aI7
aa(lp101
I45
aI65
aI66
aa(lp102
I45
aI65
aa(lp103
I45
aa(lp104
I68
aI55
aI68
aI68
aa(lp105
I68
aI55
aI68
aa(lp106
I68
aI55
aa(lp107
I68
aa(lp108
I14
aI69
aI70
aI14
aI14
aI69
aI14
aI70
aa(lp109
I14
aI69
aI70
aI14
aI14
aI69
aI14
aa(lp110
I14
aI69
aI70
aI14
aI14
aI69
aa(lp111
I14
aI69
aI70
aI14
aI14
aa(lp112
I14
aI69
aI70
aI14
aa(lp113
I14
aI69
aI70
aa(lp114
I14
aI69
aa(lp115
I14
aa(lp116
I71
aa(lp117
I72
aa(lp118
I74
aa(lp119
I75
aI76
aI75
aI77
aI75
aI75
aa(lp120
I75
aI76
aI75
aI77
aI75
aa(lp121
I75
aI76
aI75
aI77
aa(lp122
I75
aI76
aI75
aa(lp123
I75
aI76
aa(lp124
I75
aa(lp125
I46
aI78
aa(lp126
I46
aa(lp127
I79
aI79
aa(lp128
I79
aa(lp129
I80
aa(lp130
I82
aa(lp131
I83
aa(lp132
I84
aa(lp133
I85
aI85
aI86
aI85
aa(lp134
I85
aI85
aI86
aa(lp135
I85
aI85
aa(lp136
I85
aa(lp137
I87
aa(lp138
I88
aa(lp139
I89
aa(lp140
I81
aI81
aa(lp141
I81
aa(lp142
I90
aI90
aa(lp143
I90
aa(lp144
I25
aa(lp145
I91
aa(lp146
I92
aa(lp147
I93
aI76
aI94
aI76
aI93
aI95
aa(lp148
I93
aI76
aI94
aI76
aI93
aa(lp149
I93
aI76
aI94
aI76
aa(lp150
I93
aI76
aI94
aa(lp151
I93
aI76
aa(lp152
I93
aa(lp153
I67
aa(lp154
I46
aI97
aI98
aa(lp155
I46
aI97
aa(lp156
I46
aa(lp157
I73
aI73
aa(lp158
I73
aa(lp159
I99
aI100
aI100
aI99
aa(lp160
I99
aI100
aI100
aa(lp161
I99
aI100
aa(lp162
I99
aa(lp163
I101
aa(lp164
I72
aa(lp165
I102
aa(lp166
I103
aa(lp167
I105
aI106
aI105
aI107
aI107
aI105
aa(lp168
I105
aI106
aI105
aI107
aI107
aa(lp169
I105
aI106
aI105
aI107
aa(lp170
I105
aI106
aI105
aa(lp171
I105
aI106
aa(lp172
I105
aa(lp173
I46
aa(lp174
I109
aa(lp175
I110
aa(lp176
I111
aa(lp177
I113
aI113
aa(lp178
I113
aa(lp179
I114
aa(lp180
I115
aa(lp181
I116
aI116
aI116
aI116
aa(lp182
I116
aI116
aI116
aa(lp183
I116
aI116
aa(lp184
I116
aa(lp185
I117
aI117
aa(lp186
I117
aa(lp187
I100
aI118
aa(lp188
I100
aa(lp189
I16
aa(lp190
I56
aa(lp191
I28
aI28
aI28
aI119
aa(lp192
I28
aI28
aI28
aa(lp193
I28
aI28
aa(lp194
I28
aa(lp195
I68
aI55
aa(lp196
I68
aa(lp197
I56
aI121
aa(lp198
I56
aa(lp199
I56
aa(lp200
I122
aI123
aa(lp201
I122
aa(lp202
I124
aI124
aa(lp203
I124
aa(lp204
I125
aa(lp205
I127
aa(lp206
I128
aI128
aI128
aI128
aI128
aa(lp207
I128
aI128
aI128
aI128
aa(lp208
I128
aI128
aI128
aa(lp209
I128
aI128
aa(lp210
I128
aa(lp211
I5
aI60
aI60
aa(lp212
I5
aI60
aa(lp213
I5
aa(lp214
I129
aI130
aI130
aa(lp215
I129
aI130
aa(lp216
I129
aa(lp217
I131
aI94
aI132
aI133
aa(lp218
I131
aI94
aI132
aa(lp219
I131
aI94
aa(lp220
I131
aa(lp221
I133
aI94
aI94
aI132
aI134
aI134
aa(lp222
I133
aI94
aI94
aI132
aI134
aa(lp223
I133
aI94
aI94
aI132
aa(lp224
I133
aI94
aI94
aa(lp225
I133
aI94
aa(lp226
I133
aa(lp227
I135
aI136
aI135
aa(lp228
I135
aI136
aa(lp229
I135
aa(lp230
I1
aI1
aI3
aa(lp231
I1
aI1
aa(lp232
I1
aa(lp233
I138
aI138
aa(lp234
I138
aa(lp235
I139
aI19
aI19
aa(lp236
I139
aI19
aa(lp237
I139
aa(lp238
I140
aa(lp239
I74
aa(lp240
I141
aa(lp241
I78
aa(lp242
I70
aa(lp243
I143
aI143
aI143
aI143
aa(lp244
I143
aI143
aI143
aa(lp245
I143
aI143
aa(lp246
I143
aa(lp247
I144
aI145
aI145
aI144
aI144
aI144
aI145
aI145
aI144
aI145
aI144
aI145
aI144
aa(lp248
I144
aI145
aI145
aI144
aI144
aI144
aI145
aI145
aI144
aI145
aI144
aI145
aa(lp249
I144
aI145
aI145
aI144
aI144
aI144
aI145
aI145
aI144
aI145
aI144
aa(lp250
I144
aI145
aI145
aI144
aI144
aI144
aI145
aI145
aI144
aI145
aa(lp251
I144
aI145
aI145
aI144
aI144
aI144
aI145
aI145
aI144
aa(lp252
I144
aI145
aI145
aI144
aI144
aI144
aI145
aI145
aa(lp253
I144
aI145
aI145
aI144
aI144
aI144
aI145
aa(lp254
I144
aI145
aI145
aI144
aI144
aI144
aa(lp255
I144
aI145
aI145
aI144
aI144
aa(lp256
I144
aI145
aI145
aI144
aa(lp257
I144
aI145
aI145
aa(lp258
I144
aI145
aa(lp259
I144
aa(lp260
I86
aa(lp261
I44
aI39
aa(lp262
I44
aa(lp263
I78
aI98
aa(lp264
I78
aa(lp265
I85
aa(lp266
I39
aI39
aa(lp267
I39
aa(lp268
I147
aI147
aa(lp269
I147
aa(lp270
I123
aa(lp271
I148
aI148
aI148
aI148
aa(lp272
I148
aI148
aI148
aa(lp273
I148
aI148
aa(lp274
I148
aa(lp275
I149
aI86
aa(lp276
I149
aa(lp277
I97
aI8
aI7
aa(lp278
I97
aI8
aa(lp279
I97
aa(lp280
I111
aa(lp281
I39
aa(lp282
I151
aI11
aI11
aI99
aI100
aI118
aa(lp283
I151
aI11
aI11
aI99
aI100
aa(lp284
I151
aI11
aI11
aI99
aa(lp285
I151
aI11
aI11
aa(lp286
I151
aI11
aa(lp287
I151
aa(lp288
I152
aI153
aI152
aI153
aI152
aI152
aI152
aI153
aI152
aI154
aI154
aa(lp289
I152
aI153
aI152
aI153
aI152
aI152
aI152
aI153
aI152
aI154
aa(lp290
I152
aI153
aI152
aI153
aI152
aI152
aI152
aI153
aI152
aa(lp291
I152
aI153
aI152
aI153
aI152
aI152
aI152
aI153
aa(lp292
I152
aI153
aI152
aI153
aI152
aI152
aI152
aa(lp293
I152
aI153
aI152
aI153
aI152
aI152
aa(lp294
I152
aI153
aI152
aI153
aI152
aa(lp295
I152
aI153
aI152
aI153
aa(lp296
I152
aI153
aI152
aa(lp297
I152
aI153
aa(lp298
I152
aa(lp299
I120
aI119
aa(lp300
I120
aa(lp301
I155
aa(lp302
I157
aa(lp303
I137
aI136
aa(lp304
I137
aa(lp305
I158
aa(lp306
I159
aa(lp307
I15
aa(lp308
I53
aI53
aa(lp309
I53
aa(lp310
I160
aI161
aI161
aI161
aI50
aI161
aa(lp311
I160
aI161
aI161
aI161
aI50
aa(lp312
I160
aI161
aI161
aI161
aa(lp313
I160
aI161
aI161
aa(lp314
I160
aI161
aa(lp315
I160
aa(lp316
I53
aI53
aa(lp317
I53
aa(lp318
I50
aa(lp319
I163
aa(lp320
I164
aI164
aI164
aI122
aI54
aI77
aI122
aa(lp321
I164
aI164
aI164
aI122
aI54
aI77
aa(lp322
I164
aI164
aI164
aI122
aI54
aa(lp323
I164
aI164
aI164
aI122
aa(lp324
I164
aI164
aI164
aa(lp325
I164
aI164
aa(lp326
I164
aa(lp327
I87
aa(lp328
I113
aI59
aI113
aa(lp329
I113
aI59
aa(lp330
I113
aa(lp331
I165
aa(lp332
I51
aI166
aI50
aI162
aa(lp333
I51
aI166
aI50
aa(lp334
I51
aI166
aa(lp335
I51
aa(lp336
I155
aI156
aa(lp337
I155
aa(lp338
I167
aI168
aa(lp339
I167
aa(lp340
I170
aa(lp341
I171
aI171
aI171
aI146
aa(lp342
I171
aI171
aI171
aa(lp343
I171
aI171
aa(lp344
I171
aa(lp345
I156
aI156
aI155
aa(lp346
I156
aI156
aa(lp347
I156
aa(lp348
I168
aI172
aI173
aI174
aa(lp349
I168
aI172
aI173
aa(lp350
I168
aI172
aa(lp351
I168
aa(lp352
I175
aI175
aI175
aI175
aa(lp353
I175
aI175
aI175
aa(lp354
I175
aI175
aa(lp355
I175
aa(lp356
I176
aI176
aa(lp357
I176
aa(lp358
I177
aa(lp359
I178
aI178
aI178
aa(lp360
I178
aI178
aa(lp361
I178
aa(lp362
I66
aa(lp363
I180
aI180
aa(lp364
I180
aa(lp365
I181
aI181
aa(lp366
I181
aa(lp367
I65
aa(lp368
I182
aa(lp369
I183
aI183
aa(lp370
I183
aa(lp371
I15
aI15
aa(lp372
I15
aa(lp373
I184
aI184
aI184
aI184
aI184
aa(lp374
I184
aI184
aI184
aI184
aa(lp375
I184
aI184
aI184
aa(lp376
I184
aI184
aa(lp377
I184
aa(lp378
I185
aI185
aa(lp379
I185
aa(lp380
I19
aI16
aa(lp381
I19
aa(lp382
I132
aa(lp383
I25
aI186
aa(lp384
I25
aa(lp385
I37
aa(lp386
I87
aI29
aI87
aa(lp387
I87
aI29
aa(lp388
I87
aa(lp389
I187
aa(lp390
I166
aI162
aa(lp391
I166
aa(lp392
I18
aI17
aI188
aI188
aa(lp393
I18
aI17
aI188
aa(lp394
I18
aI17
aa(lp395
I18
aa(lp396
I188
aI49
aa(lp397
I188
aa(lp398
I189
aa(lp399
I5
aI4
aI5
aI4
aa(lp400
I5
aI4
aI5
aa(lp401
I5
aI4
aa(lp402
I5
aa(lp403
I190
aa(lp404
I191
aI191
aI191
aa(lp405
I191
aI191
aa(lp406
I191
aa(lp407
I92
aI91
aa(lp408
I92
aa(lp409
I99
aI26
aa(lp410
I99
aa(lp411
I192
aa(lp412
I27
aa(lp413
I193
aI193
aI193
aI193
aa(lp414
I193
aI193
aI193
aa(lp415
I193
aI193
aa(lp416
I193
aa(lp417
I194
aI194
aa(lp418
I194
aa(lp419
I180
aI195
aa(lp420
I180
aa(lp421
I30
aa(lp422
I68
aa(lp423
I180
aa(lp424
I196
aI196
aI196
aI196
aa(lp425
I196
aI196
aI196
aa(lp426
I196
aI196
aa(lp427
I196
aa(lp428
I28
aI119
aI120
aa(lp429
I28
aI119
aa(lp430
I28
aa(lp431
I86
aa(lp432
I110
aI110
aa(lp433
I110
aa(lp434
I198
aI198
aa(lp435
I198
aa(lp436
I199
aI173
aI173
aI200
aa(lp437
I199
aI173
aI173
aa(lp438
I199
aI173
aa(lp439
I199
aa(lp440
I19
aa(lp441
I87
aI29
aa(lp442
I87
aa(lp443
I185
aI185
aI185
aI185
aI185
aI201
aI201
aI185
aa(lp444
I185
aI185
aI185
aI185
aI185
aI201
aI201
aa(lp445
I185
aI185
aI185
aI185
aI185
aI201
aa(lp446
I185
aI185
aI185
aI185
aI185
aa(lp447
I185
aI185
aI185
aI185
aa(lp448
I185
aI185
aI185
aa(lp449
I185
aI185
aa(lp450
I185
aa(lp451
I185
aI202
aI185
aI185
aa(lp452
I185
aI202
aI185
aa(lp453
I185
aI202
aa(lp454
I185
aa(lp455
I157
aI114
aa(lp456
I157
aa(lp457
I203
aI203
aI204
aa(lp458
I203
aI203
aa(lp459
I203
aa(lp460
I45
aI98
aI97
aI97
aI45
aa(lp461
I45
aI98
aI97
aI97
aa(lp462
I45
aI98
aI97
aa(lp463
I45
aI98
aa(lp464
I45
aa(lp465
I205
aI205
aI205
aI205
aI205
aI205
aI205
aI205
aa(lp466
I205
aI205
aI205
aI205
aI205
aI205
aI205
aa(lp467
I205
aI205
aI205
aI205
aI205
aI205
aa(lp468
I205
aI205
aI205
aI205
aI205
aa(lp469
I205
aI205
aI205
aI205
aa(lp470
I205
aI205
aI205
aa(lp471
I205
aI205
aa(lp472
I205
aa(lp473
I206
aa(lp474
I103
aa(lp475
I48
aa(lp476
I207
aI207
aI207
aI207
aI207
aI207
aa(lp477
I207
aI207
aI207
aI207
aI207
aa(lp478
I207
aI207
aI207
aI207
aa(lp479
I207
aI207
aI207
aa(lp480
I207
aI207
aa(lp481
I207
aa(lp482
I208
aI208
aI208
aI208
aI208
aI208
aI208
aI208
aI208
aI208
aI208
aa(lp483
I208
aI208
aI208
aI208
aI208
aI208
aI208
aI208
aI208
aI208
aa(lp484
I208
aI208
aI208
aI208
aI208
aI208
aI208
aI208
aI208
aa(lp485
I208
aI208
aI208
aI208
aI208
aI208
aI208
aI208
aa(lp486
I208
aI208
aI208
aI208
aI208
aI208
aI208
aa(lp487
I208
aI208
aI208
aI208
aI208
aI208
aa(lp488
I208
aI208
aI208
aI208
aI208
aa(lp489
I208
aI208
aI208
aI208
aa(lp490
I208
aI208
aI208
aa(lp491
I208
aI208
aa(lp492
I208
aa(lp493
I84
aa(lp494
I209
aI209
aI209
aI209
aa(lp495
I209
aI209
aI209
aa(lp496
I209
aI209
aa(lp497
I209
aa(lp498
I181
aI190
aa(lp499
I181
aa(lp500
I136
aI137
aI136
aI137
aa(lp501
I136
aI137
aI136
aa(lp502
I136
aI137
aa(lp503
I136
aa(lp504
I206
aa(lp505
I28
aa(lp506
I203
aI203
aI203
aa(lp507
I203
aI203
aa(lp508
I203
aa(lp509
I210
aa(lp510
I183
aa(lp511
I19
aI18
aa(lp512
I19
aa(lp513
I211
aI211
aI211
aa(lp514
I211
aI211
aa(lp515
I211
aa(lp516
I213
aI213
aa(lp517
I213
aa(lp518
I136
aa(lp519
I70
aI69
aI70
aa(lp520
I70
aI69
aa(lp521
I70
aa(lp522
I131
aa(lp523
I214
aI214
aI53
aI109
aI188
aa(lp524
I214
aI214
aI53
aI109
aa(lp525
I214
aI214
aI53
aa(lp526
I214
aI214
aa(lp527
I214
aa(lp528
I147
aI147
aa(lp529
I147
aa(lp530
I215
aa(lp531
I139
aI139
aa(lp532
I139
aa(lp533
I216
aa(lp534
I103
aa(lp535
I30
aa(lp536
I217
aa(lp537
I218
aa(lp538
I55
aI162
aa(lp539
I55
aa(lp540
I57
aI56
aI57
aI4
aa(lp541
I57
aI56
aI57
aa(lp542
I57
aI56
aa(lp543
I57
aa(lp544
I219
aI219
aI219
aa(lp545
I219
aI219
aa(lp546
I219
aa(lp547
I146
aa(lp548
I217
aI173
aI217
aI174
aI174
aI217
aI217
aa(lp549
I217
aI173
aI217
aI174
aI174
aI217
aa(lp550
I217
aI173
aI217
aI174
aI174
aa(lp551
I217
aI173
aI217
aI174
aa(lp552
I217
aI173
aI217
aa(lp553
I217
aI173
aa(lp554
I217
aa(lp555
I220
aI220
aa(lp556
I220
aa(lp557
I212
aI221
aa(lp558
I212
aa(lp559
I222
aI223
aI224
aI225
aI226
aa(lp560
I222
aI223
aI224
aI225
aa(lp561
I222
aI223
aI224
aa(lp562
I222
aI223
aa(lp563
I222
aa(lp564
I227
aI227
aI227
aI228
aI228
aI228
aI228
aI227
aa(lp565
I227
aI227
aI227
aI228
aI228
aI228
aI228
aa(lp566
I227
aI227
aI227
aI228
aI228
aI228
aa(lp567
I227
aI227
aI227
aI228
aI228
aa(lp568
I227
aI227
aI227
aI228
aa(lp569
I227
aI227
aI227
aa(lp570
I227
aI227
aa(lp571
I227
aa(lp572
I22
aa(lp573
I38
aa(lp574
I71
aa(lp575
I67
aI157
aI12
aI142
aI46
aI157
aa(lp576
I67
aI157
aI12
aI142
aI46
aa(lp577
I67
aI157
aI12
aI142
aa(lp578
I67
aI157
aI12
aa(lp579
I67
aI157
aa(lp580
I67
aa(lp581
I104
aI85
aI146
aI86
aa(lp582
I104
aI85
aI146
aa(lp583
I104
aI85
aa(lp584
I104
aa(lp585
I182
aa(lp586
I26
aI120
aI28
aI120
aa(lp587
I26
aI120
aI28
aa(lp588
I26
aI120
aa(lp589
I26
aa(lp590
I221
aa(lp591
I56
aa(lp592
I231
aa(lp593
I15
aI15
aa(lp594
I15
aa(lp595
I174
aI88
aa(lp596
I174
aa(lp597
I8
aa(lp598
I59
aI113
aI180
aa(lp599
I59
aI113
aa(lp600
I59
aa(lp601
I34
aI34
aI34
aI34
aa(lp602
I34
aI34
aI34
aa(lp603
I34
aI34
aa(lp604
I34
aa(lp605
I99
aI118
aI100
aI118
aa(lp606
I99
aI118
aI100
aa(lp607
I99
aI118
aa(lp608
I99
aa(lp609
I234
aI234
aI234
aI234
aa(lp610
I234
aI234
aI234
aa(lp611
I234
aI234
aa(lp612
I234
aa(lp613
I55
aI68
aa(lp614
I55
aa(lp615
I170
aI170
aa(lp616
I170
aa(lp617
I107
aI106
aI106
aI106
aa(lp618
I107
aI106
aI106
aa(lp619
I107
aI106
aa(lp620
I107
aa(lp621
I17
aa(lp622
I235
aI236
aI235
aI237
aI235
aa(lp623
I235
aI236
aI235
aI237
aa(lp624
I235
aI236
aI235
aa(lp625
I235
aI236
aa(lp626
I235
aa(lp627
I189
aa(lp628
I24
aa(lp629
I109
aa(lp630
I78
aI46
aI78
aI98
aI45
aI98
aI78
aa(lp631
I78
aI46
aI78
aI98
aI45
aI98
aa(lp632
I78
aI46
aI78
aI98
aI45
aa(lp633
I78
aI46
aI78
aI98
aa(lp634
I78
aI46
aI78
aa(lp635
I78
aI46
aa(lp636
I78
aa(lp637
I77
aI131
aI132
aa(lp638
I77
aI131
aa(lp639
I77
aa(lp640
I239
aI239
aI239
aI239
aa(lp641
I239
aI239
aI239
aa(lp642
I239
aI239
aa(lp643
I239
aa(lp644
I41
aa(lp645
I240
aI241
aa(lp646
I240
aa(lp647
I242
aI242
aa(lp648
I242
aa(lp649
I52
aa(lp650
I166
aI162
aI50
aI162
aa(lp651
I166
aI162
aI50
aa(lp652
I166
aI162
aa(lp653
I166
aa(lp654
I215
aa(lp655
I201
aI202
aI202
aI201
aI202
aI201
aI202
aI202
aa(lp656
I201
aI202
aI202
aI201
aI202
aI201
aI202
aa(lp657
I201
aI202
aI202
aI201
aI202
aI201
aa(lp658
I201
aI202
aI202
aI201
aI202
aa(lp659
I201
aI202
aI202
aI201
aa(lp660
I201
aI202
aI202
aa(lp661
I201
aI202
aa(lp662
I201
aa(lp663
I200
aI78
aI243
aI65
aI176
aI167
aI200
aI168
aa(lp664
I200
aI78
aI243
aI65
aI176
aI167
aI200
aa(lp665
I200
aI78
aI243
aI65
aI176
aI167
aa(lp666
I200
aI78
aI243
aI65
aI176
aa(lp667
I200
aI78
aI243
aI65
aa(lp668
I200
aI78
aI243
aa(lp669
I200
aI78
aa(lp670
I200
aa(lp671
I26
aI118
aa(lp672
I26
aa(lp673
I49
aa(lp674
I3
aa(lp675
I122
aa(lp676
I46
aI98
aa(lp677
I46
aa(lp678
I244
aa(lp679
I24
aI246
aa(lp680
I24
aa(lp681
I247
aa(lp682
I18
aa(lp683
I149
aI249
aI250
aI250
aa(lp684
I149
aI249
aI250
aa(lp685
I149
aI249
aa(lp686
I149
aa(lp687
I118
aI99
aa(lp688
I118
aa(lp689
I49
aa(lp690
I40
aa(lp691
I121
aI5
aI248
aa(lp692
I121
aI5
aa(lp693
I121
aa(lp694
I233
aI233
aI233
aa(lp695
I233
aI233
aa(lp696
I233
aa(lp697
I9
aa(lp698
I142
aI46
aI142
aI46
aI142
aa(lp699
I142
aI46
aI142
aI46
aa(lp700
I142
aI46
aI142
aa(lp701
I142
aI46
aa(lp702
I142
aa(lp703
I241
aI129
aI129
aa(lp704
I241
aI129
aa(lp705
I241
aa(lp706
I251
aI252
aa(lp707
I251
aa(lp708
I253
aa(lp709
I244
aa(lp710
I254
aa(lp711
I114
aI98
aa(lp712
I114
aa(lp713
I255
aI255
aa(lp714
I255
aa(lp715
I215
aI215
aa(lp716
I215
aa(lp717
I35
aa(lp718
I228
aI82
aa(lp719
I228
aa(lp720
I54
aI75
aa(lp721
I54
aa(lp722
I256
aa(lp723
I221
aI82
aa(lp724
I221
aa(lp725
I217
aI73
aI73
aI215
aa(lp726
I217
aI73
aI73
aa(lp727
I217
aI73
aa(lp728
I217
aa(lp729
I257
aa(lp730
I5
aI60
aa(lp731
I5
aa(lp732
I251
aI252
aI251
aI252
aI251
aI251
aI252
aI251
aI252
aI252
aI251
aa(lp733
I251
aI252
aI251
aI252
aI251
aI251
aI252
aI251
aI252
aI252
aa(lp734
I251
aI252
aI251
aI252
aI251
aI251
aI252
aI251
aI252
aa(lp735
I251
aI252
aI251
aI252
aI251
aI251
aI252
aI251
aa(lp736
I251
aI252
aI251
aI252
aI251
aI251
aI252
aa(lp737
I251
aI252
aI251
aI252
aI251
aI251
aa(lp738
I251
aI252
aI251
aI252
aI251
aa(lp739
I251
aI252
aI251
aI252
aa(lp740
I251
aI252
aI251
aa(lp741
I251
aI252
aa(lp742
I251
aa(lp743
I55
aa(lp744
I246
aa(lp745
I181
aa(lp746
I30
aI87
aI87
aI87
aI87
aI63
aI63
aa(lp747
I30
aI87
aI87
aI87
aI87
aI63
aa(lp748
I30
aI87
aI87
aI87
aI87
aa(lp749
I30
aI87
aI87
aI87
aa(lp750
I30
aI87
aI87
aa(lp751
I30
aI87
aa(lp752
I30
aa(lp753
I258
aI258
aa(lp754
I258
aa(lp755
I9
aI66
aa(lp756
I9
aa(lp757
I152
aI153
aI152
aI153
aa(lp758
I152
aI153
aI152
aa(lp759
I152
aI153
aa(lp760
I152
aa(lp761
I19
aI16
aa(lp762
I19
aa(lp763
I162
aa(lp764
I260
aI261
aI260
aI260
aI261
aI261
aI260
aI261
aI261
aa(lp765
I260
aI261
aI260
aI260
aI261
aI261
aI260
aI261
aa(lp766
I260
aI261
aI260
aI260
aI261
aI261
aI260
aa(lp767
I260
aI261
aI260
aI260
aI261
aI261
aa(lp768
I260
aI261
aI260
aI260
aI261
aa(lp769
I260
aI261
aI260
aI260
aa(lp770
I260
aI261
aI260
aa(lp771
I260
aI261
aa(lp772
I260
aa(lp773
I243
aI243
aI243
aI243
aa(lp774
I243
aI243
aI243
aa(lp775
I243
aI243
aa(lp776
I243
aa(lp777
I17
aI17
aa(lp778
I17
aa(lp779
I216
aI216
aI262
aa(lp780
I216
aI216
aa(lp781
I216
aa(lp782
I263
aI33
aa(lp783
I263
aa(lp784
I117
aa(lp785
I264
aI264
aI264
aI264
aa(lp786
I264
aI264
aI264
aa(lp787
I264
aI264
aa(lp788
I264
aa(lp789
I136
aI135
aa(lp790
I136
aa(lp791
I95
aa(lp792
I266
aa(lp793
I108
aI108
aI106
aI106
aI106
aI107
aI106
aa(lp794
I108
aI108
aI106
aI106
aI106
aI107
aa(lp795
I108
aI108
aI106
aI106
aI106
aa(lp796
I108
aI108
aI106
aI106
aa(lp797
I108
aI108
aI106
aa(lp798
I108
aI108
aa(lp799
I108
aa(lp800
I108
aI106
aa(lp801
I108
aa(lp802
I262
aI263
aa(lp803
I262
aa(lp804
I188
aa(lp805
I39
aa(lp806
I127
aI268
aa(lp807
I127
aa(lp808
I60
aI60
aI6
aa(lp809
I60
aI60
aa(lp810
I60
aa(lp811
I180
aa(lp812
I33
aa(lp813
I158
aa(lp814
I66
aI200
aI66
aI259
aI259
aI200
aa(lp815
I66
aI200
aI66
aI259
aI259
aa(lp816
I66
aI200
aI66
aI259
aa(lp817
I66
aI200
aI66
aa(lp818
I66
aI200
aa(lp819
I66
aa(lp820
I111
aa(lp821
I241
aI127
aI130
aa(lp822
I241
aI127
aa(lp823
I241
aa(lp824
I107
aI269
aa(lp825
I107
aa(lp826
I270
aI270
aI270
aI270
aI270
aI270
aa(lp827
I270
aI270
aI270
aI270
aI270
aa(lp828
I270
aI270
aI270
aI270
aa(lp829
I270
aI270
aI270
aa(lp830
I270
aI270
aa(lp831
I270
aa(lp832
I42
aa(lp833
I25
aI25
aI25
aI25
aI25
aa(lp834
I25
aI25
aI25
aI25
aa(lp835
I25
aI25
aI25
aa(lp836
I25
aI25
aa(lp837
I25
aa(lp838
I271
aI272
aa(lp839
I271
aa(lp840
I139
aa(lp841
I273
aI273
aI273
aI273
aa(lp842
I273
aI273
aI273
aa(lp843
I273
aI273
aa(lp844
I273
aa(lp845
I22
aI229
aa(lp846
I22
aa(lp847
I97
aI45
aI176
aa(lp848
I97
aI45
aa(lp849
I97
aa(lp850
I181
aa(lp851
I33
aI262
aI141
aa(lp852
I33
aI262
aa(lp853
I33
aa(lp854
I139
aI19
aI275
aa(lp855
I139
aI19
aa(lp856
I139
aa(lp857
I229
aa(lp858
I131
aI134
aI94
aa(lp859
I131
aI134
aa(lp860
I131
aa(lp861
I39
aa(lp862
I146
aI85
aa(lp863
I146
aa(lp864
I129
aa(lp865
I131
aa(lp866
I28
aI120
aa(lp867
I28
aa(lp868
I260
aa(lp869
I275
aa(lp870
I59
aI180
aI59
aI195
aI58
aI195
aI58
aI195
aI59
aI180
aa(lp871
I59
aI180
aI59
aI195
aI58
aI195
aI58
aI195
aI59
aa(lp872
I59
aI180
aI59
aI195
aI58
aI195
aI58
aI195
aa(lp873
I59
aI180
aI59
aI195
aI58
aI195
aI58
aa(lp874
I59
aI180
aI59
aI195
aI58
aI195
aa(lp875
I59
aI180
aI59
aI195
aI58
aa(lp876
I59
aI180
aI59
aI195
aa(lp877
I59
aI180
aI59
aa(lp878
I59
aI180
aa(lp879
I59
aa(lp880
I224
aI222
aI225
aI223
aI226
aI223
aI222
aI223
aI226
aI223
aI225
aI223
aI223
aI223
aI225
aI222
aa(lp881
I224
aI222
aI225
aI223
aI226
aI223
aI222
aI223
aI226
aI223
aI225
aI223
aI223
aI223
aI225
aa(lp882
I224
aI222
aI225
aI223
aI226
aI223
aI222
aI223
aI226
aI223
aI225
aI223
aI223
aI223
aa(lp883
I224
aI222
aI225
aI223
aI226
aI223
aI222
aI223
aI226
aI223
aI225
aI223
aI223
aa(lp884
I224
aI222
aI225
aI223
aI226
aI223
aI222
aI223
aI226
aI223
aI225
aI223
aa(lp885
I224
aI222
aI225
aI223
aI226
aI223
aI222
aI223
aI226
aI223
aI225
aa(lp886
I224
aI222
aI225
aI223
aI226
aI223
aI222
aI223
aI226
aI223
aa(lp887
I224
aI222
aI225
aI223
aI226
aI223
aI222
aI223
aI226
aa(lp888
I224
aI222
aI225
aI223
aI226
aI223
aI222
aI223
aa(lp889
I224
aI222
aI225
aI223
aI226
aI223
aI222
aa(lp890
I224
aI222
aI225
aI223
aI226
aI223
aa(lp891
I224
aI222
aI225
aI223
aI226
aa(lp892
I224
aI222
aI225
aI223
aa(lp893
I224
aI222
aI225
aa(lp894
I224
aI222
aa(lp895
I224
aa(lp896
I218
aa(lp897
I191
aa(lp898
I209
aa(lp899
I127
aI130
aI241
aI241
aI241
aI241
aI241
aa(lp900
I127
aI130
aI241
aI241
aI241
aI241
aa(lp901
I127
aI130
aI241
aI241
aI241
aa(lp902
I127
aI130
aI241
aI241
aa(lp903
I127
aI130
aI241
aa(lp904
I127
aI130
aa(lp905
I127
aa(lp906
I22
aa(lp907
I278
aI278
aI278
aI278
aI278
aI278
aa(lp908
I278
aI278
aI278
aI278
aI278
aa(lp909
I278
aI278
aI278
aI278
aa(lp910
I278
aI278
aI278
aa(lp911
I278
aI278
aa(lp912
I278
aa(lp913
I247
aI247
aa(lp914
I247
aa(lp915
I258
aa(lp916
I279
aI279
aa(lp917
I279
aa(lp918
I183
aI66
aI200
aI6
aa(lp919
I183
aI66
aI200
aa(lp920
I183
aI66
aa(lp921
I183
aa(lp922
I280
aI280
aI280
aI280
aI280
aa(lp923
I280
aI280
aI280
aI280
aa(lp924
I280
aI280
aI280
aa(lp925
I280
aI280
aa(lp926
I280
aa(lp927
I97
aI7
aI264
aa(lp928
I97
aI7
aa(lp929
I97
aa(lp930
I260
aI256
aI245
aa(lp931
I260
aI256
aa(lp932
I260
aa(lp933
I214
aa(lp934
I281
aI205
aI281
aI281
aI281
aa(lp935
I281
aI205
aI281
aI281
aa(lp936
I281
aI205
aI281
aa(lp937
I281
aI205
aa(lp938
I281
aa(lp939
I1
aI246
aI159
aa(lp940
I1
aI246
aa(lp941
I1
aa(lp942
I25
aa(lp943
I45
aI282
aI200
aI282
aI45
aI232
aa(lp944
I45
aI282
aI200
aI282
aI45
aa(lp945
I45
aI282
aI200
aI282
aa(lp946
I45
aI282
aI200
aa(lp947
I45
aI282
aa(lp948
I45
aa(lp949
I63
aa(lp950
I260
aI244
aI276
aI260
aI260
aI276
aI244
aI245
aI278
aI260
aI187
aa(lp951
I260
aI244
aI276
aI260
aI260
aI276
aI244
aI245
aI278
aI260
aa(lp952
I260
aI244
aI276
aI260
aI260
aI276
aI244
aI245
aI278
aa(lp953
I260
aI244
aI276
aI260
aI260
aI276
aI244
aI245
aa(lp954
I260
aI244
aI276
aI260
aI260
aI276
aI244
aa(lp955
I260
aI244
aI276
aI260
aI260
aI276
aa(lp956
I260
aI244
aI276
aI260
aI260
aa(lp957
I260
aI244
aI276
aI260
aa(lp958
I260
aI244
aI276
aa(lp959
I260
aI244
aa(lp960
I260
aa(lp961
I80
aa(lp962
I283
aI58
aI283
aI283
aa(lp963
I283
aI58
aI283
aa(lp964
I283
aI58
aa(lp965
I283
aa(lp966
I276
aa(lp967
I284
aa(lp968
I285
aa(lp969
I214
aa(lp970
I42
aa(lp971
I285
aI249
aa(lp972
I285
aa(lp973
I199
aa(lp974
I95
aI123
aI95
aa(lp975
I95
aI123
aa(lp976
I95
aa(lp977
I78
aI114
aa(lp978
I78
aa(lp979
I108
aa(lp980
I18
aa(lp981
I217
aa(lp982
I287
aI287
aa(lp983
I287
aa(lp984
I288
aI288
aI284
aI284
aI288
aI254
aI254
aI288
aa(lp985
I288
aI288
aI284
aI284
aI288
aI254
aI254
aa(lp986
I288
aI288
aI284
aI284
aI288
aI254
aa(lp987
I288
aI288
aI284
aI284
aI288
aa(lp988
I288
aI288
aI284
aI284
aa(lp989
I288
aI288
aI284
aa(lp990
I288
aI288
aa(lp991
I288
aa(lp992
I172
aI73
aI242
aI260
aI245
aI260
aI244
aI245
aa(lp993
I172
aI73
aI242
aI260
aI245
aI260
aI244
aa(lp994
I172
aI73
aI242
aI260
aI245
aI260
aa(lp995
I172
aI73
aI242
aI260
aI245
aa(lp996
I172
aI73
aI242
aI260
aa(lp997
I172
aI73
aI242
aa(lp998
I172
aI73
aa(lp999
I172
aa(lp1000
I163
aI163
aa(lp1001
I163
aa(lp1002
I289
aa(lp1003
I282
aI172
aI97
aI73
aI172
aI73
aa(lp1004
I282
aI172
aI97
aI73
aI172
aa(lp1005
I282
aI172
aI97
aI73
aa(lp1006
I282
aI172
aI97
aa(lp1007
I282
aI172
aa(lp1008
I282
aa(lp1009
I78
aa(lp1010
I130
aI240
aa(lp1011
I130
aa(lp1012
I150
aa(lp1013
I214
aa(lp1014
I115
aa(lp1015
I2
aI125
aI126
aI125
aI125
aI126
aI126
aI277
aa(lp1016
I2
aI125
aI126
aI125
aI125
aI126
aI126
aa(lp1017
I2
aI125
aI126
aI125
aI125
aI126
aa(lp1018
I2
aI125
aI126
aI125
aI125
aa(lp1019
I2
aI125
aI126
aI125
aa(lp1020
I2
aI125
aI126
aa(lp1021
I2
aI125
aa(lp1022
I2
aa(lp1023
I126
aa(lp1024
I238
aI290
aI160
aI238
aI290
aI290
aI235
aI290
aI237
aI290
aa(lp1025
I238
aI290
aI160
aI238
aI290
aI290
aI235
aI290
aI237
aa(lp1026
I238
aI290
aI160
aI238
aI290
aI290
aI235
aI290
aa(lp1027
I238
aI290
aI160
aI238
aI290
aI290
aI235
aa(lp1028
I238
aI290
aI160
aI238
aI290
aI290
aa(lp1029
I238
aI290
aI160
aI238
aI290
aa(lp1030
I238
aI290
aI160
aI238
aa(lp1031
I238
aI290
aI160
aa(lp1032
I238
aI290
aa(lp1033
I238
aa(lp1034
I244
aI291
aI291
aa(lp1035
I244
aI291
aa(lp1036
I244
aa(lp1037
I292
aI292
aI292
aI292
aa(lp1038
I292
aI292
aI292
aa(lp1039
I292
aI292
aa(lp1040
I292
aa(lp1041
I172
aI45
aI200
aI7
aI200
aI259
aa(lp1042
I172
aI45
aI200
aI7
aI200
aa(lp1043
I172
aI45
aI200
aI7
aa(lp1044
I172
aI45
aI200
aa(lp1045
I172
aI45
aa(lp1046
I172
aa(lp1047
I293
aI293
aI293
aI293
aa(lp1048
I293
aI293
aI293
aa(lp1049
I293
aI293
aa(lp1050
I293
aa(lp1051
I40
aa(lp1052
I94
aa(lp1053
I274
aI82
aa(lp1054
I274
aa(lp1055
I82
aa(lp1056
I35
aa(lp1057
I194
aa(lp1058
I92
aI92
aa(lp1059
I92
aa(lp1060
I120
aa(lp1061
I28
aI186
aa(lp1062
I28
aa(lp1063
I160
aa(lp1064
I55
aI68
aI51
aa(lp1065
I55
aI68
aa(lp1066
I55
aa(lp1067
I253
aI294
aI294
aI294
aI253
aI253
aI253
aI253
aI253
aI294
aa(lp1068
I253
aI294
aI294
aI294
aI253
aI253
aI253
aI253
aI253
aa(lp1069
I253
aI294
aI294
aI294
aI253
aI253
aI253
aI253
aa(lp1070
I253
aI294
aI294
aI294
aI253
aI253
aI253
aa(lp1071
I253
aI294
aI294
aI294
aI253
aI253
aa(lp1072
I253
aI294
aI294
aI294
aI253
aa(lp1073
I253
aI294
aI294
aI294
aa(lp1074
I253
aI294
aI294
aa(lp1075
I253
aI294
aa(lp1076
I253
aa(lp1077
I30
aI87
aI29
aI214
aa(lp1078
I30
aI87
aI29
aa(lp1079
I30
aI87
aa(lp1080
I30
aa(lp1081
I197
aI250
aI197
aI249
aI197
aa(lp1082
I197
aI250
aI197
aI249
aa(lp1083
I197
aI250
aI197
aa(lp1084
I197
aI250
aa(lp1085
I197
aa(lp1086
I268
aI268
aa(lp1087
I268
aa(lp1088
I210
aa(lp1089
I149
aI250
aa(lp1090
I149
aa(lp1091
I50
aa(lp1092
I295
aa(lp1093
I296
aI297
aI296
aI236
aI298
aI298
aI237
aI297
aI297
aI296
aI237
aI297
aI297
aI237
aI237
aa(lp1094
I296
aI297
aI296
aI236
aI298
aI298
aI237
aI297
aI297
aI296
aI237
aI297
aI297
aI237
aa(lp1095
I296
aI297
aI296
aI236
aI298
aI298
aI237
aI297
aI297
aI296
aI237
aI297
aI297
aa(lp1096
I296
aI297
aI296
aI236
aI298
aI298
aI237
aI297
aI297
aI296
aI237
aI297
aa(lp1097
I296
aI297
aI296
aI236
aI298
aI298
aI237
aI297
aI297
aI296
aI237
aa(lp1098
I296
aI297
aI296
aI236
aI298
aI298
aI237
aI297
aI297
aI296
aa(lp1099
I296
aI297
aI296
aI236
aI298
aI298
aI237
aI297
aI297
aa(lp1100
I296
aI297
aI296
aI236
aI298
aI298
aI237
aI297
aa(lp1101
I296
aI297
aI296
aI236
aI298
aI298
aI237
aa(lp1102
I296
aI297
aI296
aI236
aI298
aI298
aa(lp1103
I296
aI297
aI296
aI236
aI298
aa(lp1104
I296
aI297
aI296
aI236
aa(lp1105
I296
aI297
aI296
aa(lp1106
I296
aI297
aa(lp1107
I296
aa(lp1108
I231
aa(lp1109
I87
aI188
aa(lp1110
I87
aa(lp1111
I269
aI269
aa(lp1112
I269
aa(lp1113
I45
aa(lp1114
I299
aa(lp1115
I206
aI206
aa(lp1116
I206
aa(lp1117
I103
aa(lp1118
I181
aa(lp1119
I11
aI139
aa(lp1120
I11
aa(lp1121
I68
aa(lp1122
I66
aI179
aI179
aI179
aI179
aI179
aI66
aa(lp1123
I66
aI179
aI179
aI179
aI179
aI179
aa(lp1124
I66
aI179
aI179
aI179
aI179
aa(lp1125
I66
aI179
aI179
aI179
aa(lp1126
I66
aI179
aI179
aa(lp1127
I66
aI179
aa(lp1128
I66
aa(lp1129
I300
aI300
aa(lp1130
I300
aa(lp1131
I192
aa(lp1132
I301
aI301
aI301
aI301
aa(lp1133
I301
aI301
aI301
aa(lp1134
I301
aI301
aa(lp1135
I301
aa(lp1136
I108
aI108
aa(lp1137
I108
aa(lp1138
I302
aI302
aI302
aa(lp1139
I302
aI302
aa(lp1140
I302
aa(lp1141
I266
aI267
aI267
aI267
aI267
aI303
aI303
aI304
aI266
aI267
aa(lp1142
I266
aI267
aI267
aI267
aI267
aI303
aI303
aI304
aI266
aa(lp1143
I266
aI267
aI267
aI267
aI267
aI303
aI303
aI304
aa(lp1144
I266
aI267
aI267
aI267
aI267
aI303
aI303
aa(lp1145
I266
aI267
aI267
aI267
aI267
aI303
aa(lp1146
I266
aI267
aI267
aI267
aI267
aa(lp1147
I266
aI267
aI267
aI267
aa(lp1148
I266
aI267
aI267
aa(lp1149
I266
aI267
aa(lp1150
I266
aa(lp1151
I28
aI28
aa(lp1152
I28
aa(lp1153
I305
aI305
aI192
aI305
aI305
aI305
aI192
aI305
aa(lp1154
I305
aI305
aI192
aI305
aI305
aI305
aI192
aa(lp1155
I305
aI305
aI192
aI305
aI305
aI305
aa(lp1156
I305
aI305
aI192
aI305
aI305
aa(lp1157
I305
aI305
aI192
aI305
aa(lp1158
I305
aI305
aI192
aa(lp1159
I305
aI305
aa(lp1160
I305
aa(lp1161
I22
aI229
aa(lp1162
I22
aa(lp1163
I304
aa(lp1164
I306
aI304
aI266
aI306
aI303
aI267
aI266
aI303
aI267
aI306
aa(lp1165
I306
aI304
aI266
aI306
aI303
aI267
aI266
aI303
aI267
aa(lp1166
I306
aI304
aI266
aI306
aI303
aI267
aI266
aI303
aa(lp1167
I306
aI304
aI266
aI306
aI303
aI267
aI266
aa(lp1168
I306
aI304
aI266
aI306
aI303
aI267
aa(lp1169
I306
aI304
aI266
aI306
aI303
aa(lp1170
I306
aI304
aI266
aI306
aa(lp1171
I306
aI304
aI266
aa(lp1172
I306
aI304
aa(lp1173
I306
aa(lp1174
I172
aa(lp1175
I262
aa(lp1176
I115
aa(lp1177
I88
aa(lp1178
I136
aI3
aI2
aI159
aI159
aI112
aI112
aa(lp1179
I136
aI3
aI2
aI159
aI159
aI112
aa(lp1180
I136
aI3
aI2
aI159
aI159
aa(lp1181
I136
aI3
aI2
aI159
aa(lp1182
I136
aI3
aI2
aa(lp1183
I136
aI3
aa(lp1184
I136
aa(lp1185
I220
aa(lp1186
I308
aI308
aI65
aa(lp1187
I308
aI308
aa(lp1188
I308
aa(lp1189
I308
aI308
aI172
aI65
aa(lp1190
I308
aI308
aI172
aa(lp1191
I308
aI308
aa(lp1192
I308
aa(lp1193
I272
aI286
aI286
aI286
aI271
aa(lp1194
I272
aI286
aI286
aI286
aa(lp1195
I272
aI286
aI286
aa(lp1196
I272
aI286
aa(lp1197
I272
aa(lp1198
I154
aI154
aa(lp1199
I154
aa(lp1200
I249
aa(lp1201
I309
aI309
aI309
aI309
aI309
aa(lp1202
I309
aI309
aI309
aI309
aa(lp1203
I309
aI309
aI309
aa(lp1204
I309
aI309
aa(lp1205
I309
aa(lp1206
I3
aI2
aI5
aI7
aI9
aI9
aI11
aI11
aI11
aI13
aI14
aI15
aI19
aI18
aI17
aI21
aI21
aI20
aI21
aI21
aI21
aI20
aI22
aI23
aI2
aI3
aI24
aI28
aI27
aI26
aI30
aI31
aI31
aI31
aI31
aI32
aI33
aI33
aI12
aI13
aI12
aI34
aI34
aI13
aI12
aI13
aI35
aI36
aI36
aI36
aI36
aI36
aI38
aI37
aI37
aI40
aI41
aI44
aI44
aI43
aI45
aI46
aI34
aI34
aI47
aI23
aI48
aI10
aI10
aI49
aI12
aI51
aI51
aI51
aI44
aI53
aI54
aI24
aI55
aI57
aI57
aI58
aI59
aI60
aI37
aI61
aI61
aI61
aI61
aI61
aI61
aI62
aI62
aI63
aI62
aI60
aI64
aI67
aI67
aI6
aI7
aI66
aI65
aI68
aI68
aI68
aI55
aI69
aI70
aI14
aI69
aI14
aI14
aI70
aI69
aI71
aI73
aI74
aI75
aI75
aI75
aI77
aI75
aI76
aI46
aI78
aI79
aI79
aI81
aI82
aI83
aI84
aI85
aI85
aI86
aI85
aI87
aI73
aI89
aI81
aI81
aI90
aI90
aI25
aI92
aI91
aI93
aI95
aI93
aI76
aI94
aI76
aI96
aI97
aI98
aI97
aI73
aI73
aI26
aI99
aI100
aI100
aI101
aI72
aI102
aI104
aI108
aI105
aI107
aI107
aI105
aI106
aI46
aI53
aI110
aI112
aI113
aI113
aI45
aI115
aI116
aI116
aI116
aI116
aI117
aI117
aI99
aI118
aI19
aI56
aI120
aI119
aI28
aI28
aI68
aI55
aI57
aI121
aI57
aI123
aI123
aI124
aI124
aI126
aI127
aI74
aI128
aI128
aI128
aI128
aI5
aI60
aI60
aI130
aI130
aI130
aI133
aI133
aI132
aI94
aI132
aI134
aI134
aI132
aI94
aI94
aI137
aI135
aI136
aI24
aI3
aI1
aI138
aI138
aI139
aI19
aI19
aI140
aI74
aI141
aI142
aI69
aI143
aI143
aI143
aI143
aI145
aI144
aI145
aI144
aI145
aI144
aI145
aI145
aI144
aI144
aI144
aI145
aI145
aI146
aI44
aI39
aI142
aI98
aI146
aI39
aI39
aI147
aI147
aI123
aI148
aI148
aI148
aI148
aI86
aI86
aI7
aI7
aI8
aI150
aI39
aI100
aI118
aI100
aI99
aI11
aI11
aI152
aI154
aI154
aI152
aI153
aI152
aI152
aI152
aI153
aI152
aI153
aI120
aI119
aI156
aI157
aI136
aI136
aI158
aI159
aI15
aI53
aI53
aI160
aI161
aI50
aI161
aI161
aI161
aI53
aI53
aI162
aI163
aI54
aI122
aI77
aI54
aI122
aI164
aI164
aI30
aI113
aI113
aI59
aI165
aI50
aI162
aI50
aI166
aI155
aI156
aI169
aI168
aI170
aI171
aI146
aI171
aI171
aI155
aI155
aI156
aI174
aI174
aI173
aI172
aI175
aI175
aI175
aI175
aI176
aI176
aI177
aI178
aI178
aI178
aI179
aI180
aI180
aI181
aI181
aI65
aI182
aI183
aI183
aI15
aI15
aI184
aI184
aI184
aI184
aI184
aI185
aI185
aI139
aI16
aI95
aI26
aI186
aI37
aI29
aI87
aI29
aI187
aI68
aI162
aI18
aI188
aI188
aI17
aI48
aI49
aI189
aI5
aI4
aI5
aI4
aI190
aI13
aI191
aI191
aI91
aI91
aI99
aI26
aI192
aI27
aI119
aI193
aI193
aI193
aI194
aI194
aI59
aI195
aI84
aI68
aI113
aI196
aI196
aI196
aI196
aI28
aI120
aI119
aI197
aI110
aI110
aI198
aI198
aI199
aI200
aI173
aI173
aI139
aI49
aI29
aI185
aI185
aI201
aI201
aI185
aI185
aI185
aI185
aI24
aI185
aI185
aI202
aI78
aI114
aI204
aI204
aI203
aI45
aI45
aI97
aI97
aI98
aI205
aI205
aI205
aI205
aI205
aI205
aI205
aI205
aI206
aI103
aI48
aI207
aI207
aI207
aI207
aI207
aI207
aI208
aI208
aI208
aI208
aI208
aI208
aI208
aI208
aI208
aI208
aI208
aI84
aI209
aI209
aI209
aI209
aI181
aI190
aI137
aI137
aI136
aI137
aI206
aI25
aI203
aI203
aI203
aI210
aI183
aI17
aI18
aI212
aI211
aI211
aI213
aI213
aI137
aI70
aI70
aI69
aI77
aI48
aI188
aI109
aI53
aI214
aI147
aI147
aI215
aI139
aI139
aI216
aI104
aI214
aI217
aI116
aI162
aI162
aI5
aI4
aI57
aI56
aI219
aI219
aI219
aI146
aI174
aI217
aI217
aI174
aI174
aI217
aI173
aI220
aI220
aI212
aI221
aI226
aI226
aI225
aI224
aI223
aI227
aI227
aI228
aI228
aI228
aI228
aI227
aI227
aI229
aI38
aI71
aI114
aI157
aI46
aI142
aI12
aI157
aI212
aI86
aI146
aI85
aI182
aI25
aI120
aI28
aI120
aI82
aI230
aI232
aI15
aI15
aI88
aI88
aI8
aI113
aI180
aI113
aI34
aI34
aI34
aI34
aI233
aI118
aI100
aI118
aI234
aI234
aI234
aI234
aI68
aI68
aI170
aI170
aI106
aI106
aI106
aI106
aI19
aI238
aI235
aI237
aI235
aI236
aI189
aI24
aI109
aI200
aI78
aI98
aI45
aI98
aI78
aI46
aI134
aI132
aI131
aI239
aI239
aI239
aI239
aI41
aI240
aI241
aI242
aI242
aI52
aI50
aI162
aI50
aI162
aI215
aI201
aI202
aI202
aI201
aI202
aI201
aI202
aI202
aI199
aI168
aI200
aI167
aI176
aI65
aI243
aI78
aI28
aI118
aI43
aI118
aI131
aI46
aI98
aI245
aI112
aI246
aI248
aI19
aI149
aI250
aI250
aI249
aI119
aI99
aI191
aI30
aI121
aI248
aI5
aI233
aI233
aI233
aI66
aI142
aI142
aI46
aI142
aI46
aI241
aI129
aI129
aI252
aI252
aI138
aI245
aI254
aI98
aI98
aI255
aI255
aI215
aI215
aI24
aI182
aI82
aI95
aI75
aI71
aI221
aI82
aI168
aI215
aI73
aI73
aI257
aI121
aI60
aI252
aI251
aI252
aI252
aI251
aI252
aI251
aI251
aI252
aI251
aI252
aI55
aI246
aI190
aI25
aI63
aI63
aI87
aI87
aI87
aI87
aI258
aI258
aI259
aI66
aI153
aI153
aI152
aI153
aI151
aI16
aI50
aI261
aI261
aI261
aI260
aI261
aI261
aI260
aI260
aI261
aI243
aI243
aI243
aI243
aI19
aI17
aI216
aI262
aI216
aI262
aI33
aI117
aI96
aI264
aI264
aI264
aI265
aI135
aI95
aI267
aI106
aI106
aI107
aI106
aI106
aI106
aI108
aI106
aI106
aI263
aI263
aI29
aI43
aI146
aI268
aI170
aI6
aI60
aI180
aI263
aI158
aI259
aI200
aI259
aI259
aI66
aI200
aI112
aI130
aI130
aI127
aI269
aI269
aI270
aI270
aI270
aI270
aI270
aI270
aI30
aI25
aI25
aI25
aI25
aI25
aI271
aI272
aI24
aI274
aI273
aI273
aI273
aI22
aI229
aI200
aI176
aI45
aI181
aI33
aI141
aI262
aI151
aI275
aI19
aI22
aI134
aI94
aI134
aI43
aI85
aI85
aI129
aI133
aI28
aI120
aI276
aI277
aI59
aI180
aI59
aI195
aI58
aI195
aI58
aI195
aI59
aI180
aI224
aI222
aI225
aI223
aI223
aI223
aI225
aI223
aI226
aI223
aI222
aI223
aI226
aI223
aI225
aI222
aI116
aI87
aI209
aI241
aI241
aI241
aI241
aI241
aI241
aI130
aI229
aI278
aI278
aI278
aI278
aI278
aI278
aI247
aI247
aI258
aI279
aI279
aI264
aI6
aI200
aI66
aI280
aI280
aI280
aI280
aI280
aI96
aI264
aI7
aI256
aI245
aI256
aI214
aI281
aI281
aI281
aI281
aI205
aI2
aI159
aI246
aI118
aI259
aI232
aI45
aI282
aI200
aI282
aI257
aI187
aI187
aI260
aI278
aI245
aI244
aI276
aI260
aI260
aI276
aI244
aI138
aI283
aI283
aI283
aI58
aI276
aI284
aI285
aI40
aI42
aI197
aI249
aI167
aI194
aI95
aI123
aI78
aI114
aI286
aI18
aI173
aI287
aI287
aI288
aI288
aI254
aI254
aI288
aI284
aI284
aI288
aI187
aI245
aI244
aI260
aI245
aI260
aI242
aI73
aI163
aI163
aI289
aI259
aI73
aI172
aI73
aI97
aI172
aI78
aI47
aI240
aI150
aI39
aI115
aI3
aI277
aI126
aI126
aI125
aI125
aI126
aI125
aI125
aI290
aI290
aI237
aI290
aI235
aI290
aI290
aI238
aI160
aI290
aI291
aI291
aI291
aI292
aI292
aI292
aI292
aI8
aI259
aI200
aI7
aI200
aI45
aI279
aI293
aI293
aI293
aI40
aI30
aI274
aI82
aI82
aI35
aI118
aI92
aI92
aI177
aI186
aI186
aI160
aI68
aI51
aI68
aI294
aI294
aI253
aI253
aI253
aI253
aI253
aI294
aI294
aI294
aI214
aI214
aI29
aI87
aI197
aI197
aI249
aI197
aI250
aI268
aI268
aI210
aI86
aI250
aI68
aI295
aI297
aI237
aI237
aI297
aI297
aI237
aI296
aI297
aI297
aI237
aI298
aI298
aI236
aI296
aI297
aI172
aI87
aI188
aI269
aI269
aI45
aI182
aI206
aI206
aI104
aI181
aI35
aI139
aI68
aI66
aI66
aI179
aI179
aI179
aI179
aI179
aI300
aI300
aI192
aI301
aI301
aI301
aI301
aI108
aI108
aI302
aI302
aI302
aI303
aI267
aI266
aI304
aI303
aI303
aI267
aI267
aI267
aI267
aI28
aI28
aI172
aI305
aI192
aI305
aI305
aI305
aI192
aI305
aI229
aI229
aI304
aI267
aI306
aI267
aI303
aI266
aI267
aI303
aI306
aI266
aI304
aI9
aI262
aI307
aI200
aI159
aI112
aI112
aI159
aI159
aI2
aI3
aI220
aI308
aI65
aI308
aI308
aI65
aI172
aI308
aI286
aI271
aI286
aI286
aI286
aI154
aI154
aI197
aI309
aI309
aI309
aI309
aI309
atp1207
.